; Function Attrs: mustprogress uwtable
define hidden void @_ZN10bit_vector6resizeEjb(ptr noundef nonnull align 8 captures(none) dereferenceable(16) %0, i32 noundef %1, i1 noundef zeroext %2) local_unnamed_addr #3 align 2 {
  %4 = load i32, ptr %0, align 8, !tbaa !11
  %.not = icmp ugt i32 %1, %4
  br i1 %.not, label %5, label %51

5:                                                ; preds = %3
  %6 = add i32 %1, 31
  %7 = lshr i32 %6, 5
  %8 = getelementptr inbounds nuw i8, ptr %0, i64 4
  %9 = load i32, ptr %8, align 4, !tbaa !10
  %10 = icmp ugt i32 %7, %9
  br i1 %10, label %11, label %._crit_edge

._crit_edge:                                      ; preds = %5
  %.phi.trans.insert = getelementptr inbounds nuw i8, ptr %0, i64 8
  %.pre22 = load ptr, ptr %.phi.trans.insert, align 8, !tbaa !3
  br label %29

11:                                               ; preds = %5
  %12 = mul nuw nsw i32 %7, 3
  %13 = add nuw nsw i32 %12, 1
  %14 = lshr i32 %13, 1
  %15 = getelementptr inbounds nuw i8, ptr %0, i64 8
  %16 = load ptr, ptr %15, align 8, !tbaa !3
  %.not.i = icmp eq ptr %16, null
  %17 = shl nuw nsw i32 %14, 2
  %18 = zext nneg i32 %17 to i64
  br i1 %.not.i, label %21, label %19

19:                                               ; preds = %11
  %20 = tail call noalias noundef ptr @_ZN6memory10reallocateEPvm(ptr noundef nonnull %16, i64 noundef %18)
  br label %_ZN10bit_vector9expand_toEj.exit

21:                                               ; preds = %11
  %22 = tail call noalias noundef ptr @_ZN6memory8allocateEm(i64 noundef %18)
  br label %_ZN10bit_vector9expand_toEj.exit

_ZN10bit_vector9expand_toEj.exit:                 ; preds = %19, %21
  %storemerge.i = phi ptr [ %22, %21 ], [ %20, %19 ]
  store ptr %storemerge.i, ptr %15, align 8, !tbaa !3
  %23 = load i32, ptr %8, align 4, !tbaa !10
  %24 = zext i32 %23 to i64
  %25 = getelementptr inbounds nuw i32, ptr %storemerge.i, i64 %24
  %26 = sub i32 %14, %23
  %27 = zext i32 %26 to i64
  %28 = shl nuw nsw i64 %27, 2
  tail call void @llvm.memset.p0.i64(ptr align 4 %25, i8 0, i64 %28, i1 false)
  store i32 %14, ptr %8, align 4, !tbaa !10
  %.pre = load i32, ptr %0, align 8, !tbaa !11
  br label %29

29:                                               ; preds = %._crit_edge, %_ZN10bit_vector9expand_toEj.exit
  %30 = phi ptr [ %storemerge.i, %_ZN10bit_vector9expand_toEj.exit ], [ %.pre22, %._crit_edge ]
  %31 = phi i32 [ %.pre, %_ZN10bit_vector9expand_toEj.exit ], [ %4, %._crit_edge ]
  %32 = lshr i32 %31, 5
  %33 = zext nneg i32 %32 to i64
  %34 = getelementptr inbounds nuw i32, ptr %30, i64 %33
  %35 = and i32 %31, 31
  %notmask = shl nsw i32 -1, %35
  br i1 %2, label %36, label %39

36:                                               ; preds = %29
  %37 = load i32, ptr %34, align 4, !tbaa !12
  %38 = or i32 %37, %notmask
  br label %43

39:                                               ; preds = %29
  %40 = xor i32 %notmask, -1
  %41 = load i32, ptr %34, align 4, !tbaa !12
  %42 = and i32 %41, %40
  br label %43

43:                                               ; preds = %39, %36
  %storemerge = phi i32 [ %42, %39 ], [ %38, %36 ]
  %.0 = phi i8 [ 0, %39 ], [ -1, %36 ]
  store i32 %storemerge, ptr %34, align 4, !tbaa !12
  %44 = icmp samesign ult i32 %32, %7
  br i1 %44, label %45, label %51

45:                                               ; preds = %43
  %46 = getelementptr inbounds nuw i8, ptr %34, i64 4
  %47 = xor i32 %32, -1
  %48 = add nsw i32 %7, %47
  %49 = zext i32 %48 to i64
  %50 = shl nuw nsw i64 %49, 2
  tail call void @llvm.memset.p0.i64(ptr nonnull align 4 %46, i8 %.0, i64 %50, i1 false)
  br label %51

51:                                               ; preds = %43, %45, %3
  store i32 %1, ptr %0, align 8, !tbaa !11
  ret void
}